target datalayout = "e-m:e-p270:32:32-p271:32:32-p272:64:64-i64:64-i128:128-f80:128-n8:16:32:64-S128"
target triple = "x86_64-pc-linux-gnu"

%struct.ASN1_ITEM_st = type { i8, i64, ptr, i64, ptr, i64, ptr }
%struct.ASN1_AUX_st = type { ptr, i32, i32, i32, ptr, i32, ptr }
%struct.ASN1_ENCODING_st = type { ptr, i64, i32 }

@.str = private unnamed_addr constant [34 x i8] c"../openssl/crypto/asn1/tasn_utl.c\00", align 1

; Function Attrs: nounwind uwtable
define internal ptr @asn1_get_enc_ptr(ptr noundef %0, ptr noundef %1) #0 {
  %3 = alloca ptr, align 8
  %4 = alloca ptr, align 8
  %5 = alloca ptr, align 8
  %6 = alloca ptr, align 8
  %7 = alloca i32, align 4
  store ptr %0, ptr %4, align 8, !tbaa !3
  store ptr %1, ptr %5, align 8, !tbaa !8
  call void @llvm.lifetime.start.p0(i64 8, ptr %6) #5
  %8 = load ptr, ptr %4, align 8, !tbaa !3
  %9 = icmp eq ptr %8, null
  br i1 %9, label %14, label %10

10:                                               ; preds = %2
  %11 = load ptr, ptr %4, align 8, !tbaa !3
  %12 = load ptr, ptr %11, align 8, !tbaa !10
  %13 = icmp eq ptr %12, null
  br i1 %13, label %14, label %15

14:                                               ; preds = %10, %2
  store ptr null, ptr %3, align 8
  store i32 1, ptr %7, align 4
  br label %36

15:                                               ; preds = %10
  %16 = load ptr, ptr %5, align 8, !tbaa !8
  %17 = getelementptr inbounds nuw %struct.ASN1_ITEM_st, ptr %16, i32 0, i32 4
  %18 = load ptr, ptr %17, align 8, !tbaa !22
  store ptr %18, ptr %6, align 8, !tbaa !23
  %19 = load ptr, ptr %6, align 8, !tbaa !23
  %20 = icmp eq ptr %19, null
  br i1 %20, label %27, label %21

21:                                               ; preds = %15
  %22 = load ptr, ptr %6, align 8, !tbaa !23
  %23 = getelementptr inbounds nuw %struct.ASN1_AUX_st, ptr %22, i32 0, i32 1
  %24 = load i32, ptr %23, align 8, !tbaa !25
  %25 = and i32 %24, 2
  %26 = icmp eq i32 %25, 0
  br i1 %26, label %27, label %28

27:                                               ; preds = %21, %15
  store ptr null, ptr %3, align 8
  store i32 1, ptr %7, align 4
  br label %36

28:                                               ; preds = %21
  %29 = load ptr, ptr %4, align 8, !tbaa !3
  %30 = load ptr, ptr %29, align 8, !tbaa !10
  %31 = load ptr, ptr %6, align 8, !tbaa !23
  %32 = getelementptr inbounds nuw %struct.ASN1_AUX_st, ptr %31, i32 0, i32 5
  %33 = load i32, ptr %32, align 8, !tbaa !38
  %34 = sext i32 %33 to i64
  %35 = getelementptr inbounds i8, ptr %30, i64 %34
  store ptr %35, ptr %3, align 8
  store i32 1, ptr %7, align 4
  br label %36

36:                                               ; preds = %28, %27, %14
  call void @llvm.lifetime.end.p0(i64 8, ptr %6) #5
  %37 = load ptr, ptr %3, align 8
  ret ptr %37
}

; Function Attrs: nounwind uwtable
define void @ossl_asn1_enc_free(ptr noundef %0, ptr noundef %1) #0 {
  %3 = alloca ptr, align 8
  %4 = alloca ptr, align 8
  %5 = alloca ptr, align 8
  store ptr %0, ptr %3, align 8, !tbaa !3
  store ptr %1, ptr %4, align 8, !tbaa !8
  call void @llvm.lifetime.start.p0(i64 8, ptr %5) #5
  %6 = load ptr, ptr %3, align 8, !tbaa !3
  %7 = load ptr, ptr %4, align 8, !tbaa !8
  %8 = call ptr @asn1_get_enc_ptr(ptr noundef %6, ptr noundef %7)
  store ptr %8, ptr %5, align 8, !tbaa !32
  %9 = load ptr, ptr %5, align 8, !tbaa !32
  %10 = icmp ne ptr %9, null
  br i1 %10, label %11, label %21

11:                                               ; preds = %2
  %12 = load ptr, ptr %5, align 8, !tbaa !32
  %13 = getelementptr inbounds nuw %struct.ASN1_ENCODING_st, ptr %12, i32 0, i32 0
  %14 = load ptr, ptr %13, align 8, !tbaa !34
  call void @CRYPTO_free(ptr noundef %14, ptr noundef @.str, i32 noundef 157)
  %15 = load ptr, ptr %5, align 8, !tbaa !32
  %16 = getelementptr inbounds nuw %struct.ASN1_ENCODING_st, ptr %15, i32 0, i32 0
  store ptr null, ptr %16, align 8, !tbaa !34
  %17 = load ptr, ptr %5, align 8, !tbaa !32
  %18 = getelementptr inbounds nuw %struct.ASN1_ENCODING_st, ptr %17, i32 0, i32 1
  store i64 0, ptr %18, align 8, !tbaa !36
  %19 = load ptr, ptr %5, align 8, !tbaa !32
  %20 = getelementptr inbounds nuw %struct.ASN1_ENCODING_st, ptr %19, i32 0, i32 2
  store i32 1, ptr %20, align 8, !tbaa !37
  br label %21

21:                                               ; preds = %11, %2
  call void @llvm.lifetime.end.p0(i64 8, ptr %5) #5
  ret void
}