; Function Attrs: nounwind uwtable
define void @ossl_asn1_enc_free(ptr noundef readonly captures(address_is_null) %0, ptr noundef readonly captures(none) %1) local_unnamed_addr #3 {
  %3 = icmp eq ptr %0, null
  br i1 %3, label %asn1_get_enc_ptr.exit.thread, label %4

4:                                                ; preds = %2
  %5 = load ptr, ptr %0, align 8, !tbaa !3
  %6 = icmp eq ptr %5, null
  br i1 %6, label %asn1_get_enc_ptr.exit.thread, label %7

7:                                                ; preds = %4
  %8 = getelementptr inbounds nuw i8, ptr %1, i64 32
  %9 = load ptr, ptr %8, align 8, !tbaa !16
  %10 = icmp eq ptr %9, null
  br i1 %10, label %asn1_get_enc_ptr.exit.thread, label %11

11:                                               ; preds = %7
  %12 = getelementptr inbounds nuw i8, ptr %9, i64 8
  %13 = load i32, ptr %12, align 8, !tbaa !17
  %14 = and i32 %13, 2
  %15 = icmp eq i32 %14, 0
  br i1 %15, label %asn1_get_enc_ptr.exit.thread, label %asn1_get_enc_ptr.exit

asn1_get_enc_ptr.exit:                            ; preds = %11
  %16 = getelementptr inbounds nuw i8, ptr %9, i64 32
  %17 = load i32, ptr %16, align 8, !tbaa !24
  %18 = sext i32 %17 to i64
  %19 = getelementptr inbounds i8, ptr %5, i64 %18
  %20 = load ptr, ptr %19, align 8, !tbaa !27
  tail call void @CRYPTO_free(ptr noundef %20, ptr noundef nonnull @.str, i32 noundef 157) #8
  %21 = getelementptr inbounds nuw i8, ptr %19, i64 16
  tail call void @llvm.memset.p0.i64(ptr noundef nonnull align 8 dereferenceable(16) %19, i8 0, i64 16, i1 false)
  store i32 1, ptr %21, align 8, !tbaa !25
  br label %asn1_get_enc_ptr.exit.thread

asn1_get_enc_ptr.exit.thread:                     ; preds = %7, %11, %2, %4, %asn1_get_enc_ptr.exit
  ret void
}